target datalayout = "e-m:e-p270:32:32-p271:32:32-p272:64:64-i64:64-i128:128-f80:128-n8:16:32:64-S128"
target triple = "x86_64-unknown-linux-gnu"

%"class.cvc5::internal::theory::quantifiers::RelevantDomain::RDomain" = type { %"class.std::vector", ptr }
%"class.std::vector" = type { %"struct.std::_Vector_base" }
%"struct.std::_Vector_base" = type { %"struct.std::_Vector_base<cvc5::internal::NodeTemplate<true>, std::allocator<cvc5::internal::NodeTemplate<true>>>::_Vector_impl" }
%"struct.std::_Vector_base<cvc5::internal::NodeTemplate<true>, std::allocator<cvc5::internal::NodeTemplate<true>>>::_Vector_impl" = type { %"struct.std::_Vector_base<cvc5::internal::NodeTemplate<true>, std::allocator<cvc5::internal::NodeTemplate<true>>>::_Vector_impl_data" }
%"struct.std::_Vector_base<cvc5::internal::NodeTemplate<true>, std::allocator<cvc5::internal::NodeTemplate<true>>>::_Vector_impl_data" = type { ptr, ptr, ptr }

; Function Attrs: mustprogress uwtable
define hidden noundef ptr @_ZN4cvc58internal6theory11quantifiers14RelevantDomain7RDomain9getParentEv(ptr noundef nonnull align 8 dereferenceable(32) %this) #4 align 2 {
entry:
  %retval = alloca ptr, align 8
  %this.addr = alloca ptr, align 8
  %p = alloca ptr, align 8
  store ptr %this, ptr %this.addr, align 8
  %this1 = load ptr, ptr %this.addr, align 8
  %d_parent = getelementptr inbounds %"class.cvc5::internal::theory::quantifiers::RelevantDomain::RDomain", ptr %this1, i32 0, i32 1
  %0 = load ptr, ptr %d_parent, align 8
  %tobool = icmp ne ptr %0, null
  br i1 %tobool, label %if.else, label %if.then

if.then:                                          ; preds = %entry
  store ptr %this1, ptr %retval, align 8
  br label %return

if.else:                                          ; preds = %entry
  %d_parent2 = getelementptr inbounds %"class.cvc5::internal::theory::quantifiers::RelevantDomain::RDomain", ptr %this1, i32 0, i32 1
  %1 = load ptr, ptr %d_parent2, align 8
  %call = call noundef ptr @_ZN4cvc58internal6theory11quantifiers14RelevantDomain7RDomain9getParentEv(ptr noundef nonnull align 8 dereferenceable(32) %1)
  store ptr %call, ptr %p, align 8
  %2 = load ptr, ptr %p, align 8
  %d_parent3 = getelementptr inbounds %"class.cvc5::internal::theory::quantifiers::RelevantDomain::RDomain", ptr %this1, i32 0, i32 1
  store ptr %2, ptr %d_parent3, align 8
  %3 = load ptr, ptr %p, align 8
  store ptr %3, ptr %retval, align 8
  br label %return

return:                                           ; preds = %if.else, %if.then
  %4 = load ptr, ptr %retval, align 8
  ret ptr %4
}