; Function Attrs: mustprogress nofree nosync nounwind memory(readwrite, inaccessiblemem: none) uwtable
define hidden noundef nonnull ptr @_ZN4cvc58internal6theory11quantifiers14RelevantDomain7RDomain9getParentEv(ptr noundef nonnull align 8 dereferenceable(32) %this) local_unnamed_addr #5 align 2 {
entry:
  %d_parent = getelementptr inbounds i8, ptr %this, i64 24
  %0 = load ptr, ptr %d_parent, align 8
  %tobool.not = icmp eq ptr %0, null
  br i1 %tobool.not, label %common.ret2, label %if.else

common.ret2:                                      ; preds = %entry, %if.else
  %common.ret2.op = phi ptr [ %call, %if.else ], [ %this, %entry ]
  ret ptr %common.ret2.op

if.else:                                          ; preds = %entry
  %call = tail call noundef ptr @_ZN4cvc58internal6theory11quantifiers14RelevantDomain7RDomain9getParentEv(ptr noundef nonnull align 8 dereferenceable(32) %0)
  store ptr %call, ptr %d_parent, align 8
  br label %common.ret2
}